(lp0
(dp1
S'early_auc'
p2
cnumpy.core.multiarray
scalar
p3
(cnumpy
dtype
p4
(S'f8'
p5
I0
I1
tp6
Rp7
(I3
S'<'
p8
NNNI-1
I-1
I0
tp9
bS'n\xc6M\xed\xb2\xc3\xee?'
p10
tp11
Rp12
sS'seizure_auc'
p13
g3
(g7
S'7\xec\xa2\xc5\x8e4\xef?'
p14
tp15
Rp16
sS'feature_extractor'
p17
S'AR'
p18
sS'predictor'
p19
S'Random Forest'
p20
sa(dp21
g2
g3
(g7
S'K\xf9\xb9\xd0qk\xee?'
p22
tp23
Rp24
sg13
g3
(g7
S'/\x04\xf0P\xf7\x15\xef?'
p25
tp26
Rp27
sg17
S'VLAR(2)'
p28
sg19
g20
sa(dp29
g2
g3
(g7
S'\x19\x07S\x8b\x8ap\xee?'
p30
tp31
Rp32
sg13
g3
(g7
S'\x83H\xe6\xf4\x8c>\xef?'
p33
tp34
Rp35
sg17
S'VLAR(3)'
p36
sg19
g20
sa(dp37
g2
g3
(g7
S'\x88\xff\x89\x917+\xee?'
p38
tp39
Rp40
sg13
g3
(g7
S'\x83H\xe6\xf4\x8c>\xef?'
p41
tp42
Rp43
sg17
S'VLAR(4)'
p44
sg19
g20
sa(dp45
g2
g3
(g7
S'U\xa9P\x1a\\B\xe9?'
p46
tp47
Rp48
sg13
g3
(g7
S'LJ[\x8f\xb9M\xec?'
p49
tp50
Rp51
sg17
S'VLAR(7)'
p52
sg19
g20
sa(dp53
g2
g3
(g7
S'\xcf%\xca\xdaZ\xb2\xed?'
p54
tp55
Rp56
sg13
g3
(g7
S'\xe7\xf75\x9c\xbb\xa2\xef?'
p57
tp58
Rp59
sg17
S'SE'
p60
sg19
g20
sa(dp61
g2
g3
(g7
S'\xf7\xf9GpZ\x82\xe5?'
p62
tp63
Rp64
sg13
g3
(g7
S'li\x91\xdf\xb4\x83\xe8?'
p65
tp66
Rp67
sg17
S'PLV'
p68
sg19
g20
sa(dp69
g2
g3
(g7
S'\xa3\x0cr\xa6#q\xef?'
p70
tp71
Rp72
sg13
g3
(g7
S'\xe4w\xabn\xcb\x96\xef?'
p73
tp74
Rp75
sg17
S'Stack(VLAR(2), PLV, SE)'
p76
sg19
g20
sa(dp77
g2
g3
(g7
S'\xf2\x1c+\xae\xbe\x8f\xef?'
p78
tp79
Rp80
sg13
g3
(g7
S'\x04ns9\xa5\x87\xef?'
p81
tp82
Rp83
sg17
S'Stack(VLAR(2), SE)'
p84
sg19
g20
sa(dp85
g2
g3
(g7
S'X2\xb0hn\x82\xef?'
p86
tp87
Rp88
sg13
g3
(g7
S't\xdb\xfcz\xd7\x8c\xef?'
p89
tp90
Rp91
sg17
S'Stack(AR, VLAR(2), SE)'
p92
sg19
g20
sa(dp93
g2
g3
(g7
S'\x1e\x0c\xb6+\xd3K\xef?'
p94
tp95
Rp96
sg13
g3
(g7
S'\x07\xd43\x95\xeb\x8e\xef?'
p97
tp98
Rp99
sg17
S'Stack(AR, VLAR(2), PLV, SE)'
p100
sg19
g20
sa(dp101
g2
g3
(g7
S'q\xad\xea\xe3W\x1c\xef?'
p102
tp103
Rp104
sg13
g3
(g7
S'v\x8d\xb3`\xba\x96\xef?'
p105
tp106
Rp107
sg17
S'Stack(VLAR(2), VLAR(4), PLV, SE)'
p108
sg19
g20
sa.